ARM GAS  /tmp/ccX35DtH.s 			page 1


   1              		.cpu cortex-m4
   2              		.eabi_attribute 27, 1
   3              		.eabi_attribute 28, 1
   4              		.eabi_attribute 20, 1
   5              		.eabi_attribute 21, 1
   6              		.eabi_attribute 23, 3
   7              		.eabi_attribute 24, 1
   8              		.eabi_attribute 25, 1
   9              		.eabi_attribute 26, 1
  10              		.eabi_attribute 30, 1
  11              		.eabi_attribute 34, 1
  12              		.eabi_attribute 18, 4
  13              		.file	"main.c"
  14              		.text
  15              	.Ltext0:
  16              		.cfi_sections	.debug_frame
  17              		.section	.text.MX_GPIO_Init,"ax",%progbits
  18              		.align	1
  19              		.syntax unified
  20              		.thumb
  21              		.thumb_func
  22              		.fpu fpv4-sp-d16
  24              	MX_GPIO_Init:
  25              	.LFB126:
  26              		.file 1 "Src/main.c"
   1:Src/main.c    **** /**
   2:Src/main.c    ****   ******************************************************************************
   3:Src/main.c    ****   * File Name          : main.c
   4:Src/main.c    ****   * Description        : Main program body
   5:Src/main.c    ****   ******************************************************************************
   6:Src/main.c    ****   ** This notice applies to any and all portions of this file
   7:Src/main.c    ****   * that are not between comment pairs USER CODE BEGIN and
   8:Src/main.c    ****   * USER CODE END. Other portions of this file, whether 
   9:Src/main.c    ****   * inserted by the user or by software development tools
  10:Src/main.c    ****   * are owned by their respective copyright owners.
  11:Src/main.c    ****   *
  12:Src/main.c    ****   * COPYRIGHT(c) 2017 STMicroelectronics
  13:Src/main.c    ****   *
  14:Src/main.c    ****   * Redistribution and use in source and binary forms, with or without modification,
  15:Src/main.c    ****   * are permitted provided that the following conditions are met:
  16:Src/main.c    ****   *   1. Redistributions of source code must retain the above copyright notice,
  17:Src/main.c    ****   *      this list of conditions and the following disclaimer.
  18:Src/main.c    ****   *   2. Redistributions in binary form must reproduce the above copyright notice,
  19:Src/main.c    ****   *      this list of conditions and the following disclaimer in the documentation
  20:Src/main.c    ****   *      and/or other materials provided with the distribution.
  21:Src/main.c    ****   *   3. Neither the name of STMicroelectronics nor the names of its contributors
  22:Src/main.c    ****   *      may be used to endorse or promote products derived from this software
  23:Src/main.c    ****   *      without specific prior written permission.
  24:Src/main.c    ****   *
  25:Src/main.c    ****   * THIS SOFTWARE IS PROVIDED BY THE COPYRIGHT HOLDERS AND CONTRIBUTORS "AS IS"
  26:Src/main.c    ****   * AND ANY EXPRESS OR IMPLIED WARRANTIES, INCLUDING, BUT NOT LIMITED TO, THE
  27:Src/main.c    ****   * IMPLIED WARRANTIES OF MERCHANTABILITY AND FITNESS FOR A PARTICULAR PURPOSE ARE
  28:Src/main.c    ****   * DISCLAIMED. IN NO EVENT SHALL THE COPYRIGHT HOLDER OR CONTRIBUTORS BE LIABLE
  29:Src/main.c    ****   * FOR ANY DIRECT, INDIRECT, INCIDENTAL, SPECIAL, EXEMPLARY, OR CONSEQUENTIAL
  30:Src/main.c    ****   * DAMAGES (INCLUDING, BUT NOT LIMITED TO, PROCUREMENT OF SUBSTITUTE GOODS OR
  31:Src/main.c    ****   * SERVICES; LOSS OF USE, DATA, OR PROFITS; OR BUSINESS INTERRUPTION) HOWEVER
  32:Src/main.c    ****   * CAUSED AND ON ANY THEORY OF LIABILITY, WHETHER IN CONTRACT, STRICT LIABILITY,
ARM GAS  /tmp/ccX35DtH.s 			page 2


  33:Src/main.c    ****   * OR TORT (INCLUDING NEGLIGENCE OR OTHERWISE) ARISING IN ANY WAY OUT OF THE USE
  34:Src/main.c    ****   * OF THIS SOFTWARE, EVEN IF ADVISED OF THE POSSIBILITY OF SUCH DAMAGE.
  35:Src/main.c    ****   *
  36:Src/main.c    ****   ******************************************************************************
  37:Src/main.c    ****   */
  38:Src/main.c    **** 
  39:Src/main.c    **** /* Includes ------------------------------------------------------------------*/
  40:Src/main.c    **** #include "main.h"
  41:Src/main.c    **** #include "stm32f3xx_hal.h"
  42:Src/main.c    **** 
  43:Src/main.c    **** /* USER CODE BEGIN Includes */
  44:Src/main.c    **** #include "dwt_stm32_delay.h"
  45:Src/main.c    **** /* USER CODE END Includes */
  46:Src/main.c    **** 
  47:Src/main.c    **** /* Private variables ---------------------------------------------------------*/
  48:Src/main.c    **** 
  49:Src/main.c    **** /* USER CODE BEGIN PV */
  50:Src/main.c    **** /* Private variables ---------------------------------------------------------*/
  51:Src/main.c    **** 
  52:Src/main.c    **** /* USER CODE END PV */
  53:Src/main.c    **** 
  54:Src/main.c    **** /* Private function prototypes -----------------------------------------------*/
  55:Src/main.c    **** void SystemClock_Config(void);
  56:Src/main.c    **** static void MX_GPIO_Init(void);
  57:Src/main.c    **** 
  58:Src/main.c    **** /* USER CODE BEGIN PFP */
  59:Src/main.c    **** /* Private function prototypes -----------------------------------------------*/
  60:Src/main.c    **** static uint32_t T = 416;  /* T value in usec(microseconds) */
  61:Src/main.c    **** static unsigned int response = 0xD4; /* with FE as pre-amble data */
  62:Src/main.c    **** static void Manch_Tx(unsigned int response);
  63:Src/main.c    **** 
  64:Src/main.c    **** /*interrupt_detected */
  65:Src/main.c    **** unsigned char interrupt_detected = 0;
  66:Src/main.c    **** /* USER CODE END PFP */
  67:Src/main.c    **** 
  68:Src/main.c    **** /* USER CODE BEGIN 0 */
  69:Src/main.c    **** 
  70:Src/main.c    **** /* USER CODE END 0 */
  71:Src/main.c    **** 
  72:Src/main.c    **** int main(void)
  73:Src/main.c    **** {
  74:Src/main.c    **** 
  75:Src/main.c    ****   /* USER CODE BEGIN 1 */
  76:Src/main.c    **** 
  77:Src/main.c    ****   /* USER CODE END 1 */
  78:Src/main.c    **** 
  79:Src/main.c    ****   /* MCU Configuration----------------------------------------------------------*/
  80:Src/main.c    **** 
  81:Src/main.c    ****   /* Reset of all peripherals, Initializes the Flash interface and the Systick. */
  82:Src/main.c    ****   HAL_Init();
  83:Src/main.c    **** 
  84:Src/main.c    ****   /* USER CODE BEGIN Init */
  85:Src/main.c    **** 
  86:Src/main.c    ****   /* USER CODE END Init */
  87:Src/main.c    **** 
  88:Src/main.c    ****   /* Configure the system clock */
  89:Src/main.c    ****   SystemClock_Config();
ARM GAS  /tmp/ccX35DtH.s 			page 3


  90:Src/main.c    **** 
  91:Src/main.c    ****   /* USER CODE BEGIN SysInit */
  92:Src/main.c    **** 
  93:Src/main.c    ****   /* USER CODE END SysInit */
  94:Src/main.c    **** 
  95:Src/main.c    ****   /* Initialize all configured peripherals */
  96:Src/main.c    ****   MX_GPIO_Init();
  97:Src/main.c    **** 
  98:Src/main.c    ****   /* USER CODE BEGIN 2 */
  99:Src/main.c    ****   /* Initialize the DWT_Delay_us function */
 100:Src/main.c    ****   if(DWT_Delay_Init())
 101:Src/main.c    ****     {
 102:Src/main.c    ****       _Error_Handler(__FILE__, __LINE__);
 103:Src/main.c    ****     }
 104:Src/main.c    ****   while(interrupt_detected == 0)
 105:Src/main.c    ****     {
 106:Src/main.c    ****     }
 107:Src/main.c    ****   /* I think here, there is a definitive need of some delay */
 108:Src/main.c    ****   DWT_Delay_us(10);
 109:Src/main.c    ****   Manch_Tx(response);
 110:Src/main.c    ****   
 111:Src/main.c    ****   /* USER CODE END 2 */
 112:Src/main.c    **** 
 113:Src/main.c    ****   /* Infinite loop */
 114:Src/main.c    ****   /* USER CODE BEGIN WHILE */
 115:Src/main.c    ****   while (1)
 116:Src/main.c    ****   {
 117:Src/main.c    ****   HAL_GPIO_TogglePin(LED_Green_GPIO_Port, LED_Green_Pin);
 118:Src/main.c    ****   HAL_Delay(250);
 119:Src/main.c    ****   /* USER CODE END WHILE */
 120:Src/main.c    **** 
 121:Src/main.c    ****   /* USER CODE BEGIN 3 */
 122:Src/main.c    **** 
 123:Src/main.c    ****   }
 124:Src/main.c    ****   /* USER CODE END 3 */
 125:Src/main.c    **** 
 126:Src/main.c    **** }
 127:Src/main.c    **** 
 128:Src/main.c    **** /** System Clock Configuration
 129:Src/main.c    **** */
 130:Src/main.c    **** void SystemClock_Config(void)
 131:Src/main.c    **** {
 132:Src/main.c    **** 
 133:Src/main.c    ****   RCC_OscInitTypeDef RCC_OscInitStruct;
 134:Src/main.c    ****   RCC_ClkInitTypeDef RCC_ClkInitStruct;
 135:Src/main.c    **** 
 136:Src/main.c    ****     /**Initializes the CPU, AHB and APB busses clocks 
 137:Src/main.c    ****     */
 138:Src/main.c    ****   RCC_OscInitStruct.OscillatorType = RCC_OSCILLATORTYPE_HSI;
 139:Src/main.c    ****   RCC_OscInitStruct.HSIState = RCC_HSI_ON;
 140:Src/main.c    ****   RCC_OscInitStruct.HSICalibrationValue = 16;
 141:Src/main.c    ****   RCC_OscInitStruct.PLL.PLLState = RCC_PLL_ON;
 142:Src/main.c    ****   RCC_OscInitStruct.PLL.PLLSource = RCC_PLLSOURCE_HSI;
 143:Src/main.c    ****   RCC_OscInitStruct.PLL.PLLMUL = RCC_PLL_MUL8;
 144:Src/main.c    ****   if (HAL_RCC_OscConfig(&RCC_OscInitStruct) != HAL_OK)
 145:Src/main.c    ****   {
 146:Src/main.c    ****     _Error_Handler(__FILE__, __LINE__);
ARM GAS  /tmp/ccX35DtH.s 			page 4


 147:Src/main.c    ****   }
 148:Src/main.c    **** 
 149:Src/main.c    ****     /**Initializes the CPU, AHB and APB busses clocks 
 150:Src/main.c    ****     */
 151:Src/main.c    ****   RCC_ClkInitStruct.ClockType = RCC_CLOCKTYPE_HCLK|RCC_CLOCKTYPE_SYSCLK
 152:Src/main.c    ****                               |RCC_CLOCKTYPE_PCLK1|RCC_CLOCKTYPE_PCLK2;
 153:Src/main.c    ****   RCC_ClkInitStruct.SYSCLKSource = RCC_SYSCLKSOURCE_PLLCLK;
 154:Src/main.c    ****   RCC_ClkInitStruct.AHBCLKDivider = RCC_SYSCLK_DIV1;
 155:Src/main.c    ****   RCC_ClkInitStruct.APB1CLKDivider = RCC_HCLK_DIV4;
 156:Src/main.c    ****   RCC_ClkInitStruct.APB2CLKDivider = RCC_HCLK_DIV1;
 157:Src/main.c    **** 
 158:Src/main.c    ****   if (HAL_RCC_ClockConfig(&RCC_ClkInitStruct, FLASH_LATENCY_1) != HAL_OK)
 159:Src/main.c    ****   {
 160:Src/main.c    ****     _Error_Handler(__FILE__, __LINE__);
 161:Src/main.c    ****   }
 162:Src/main.c    **** 
 163:Src/main.c    ****     /**Configure the Systick interrupt time 
 164:Src/main.c    ****     */
 165:Src/main.c    ****   HAL_SYSTICK_Config(HAL_RCC_GetHCLKFreq()/1000);
 166:Src/main.c    **** 
 167:Src/main.c    ****     /**Configure the Systick 
 168:Src/main.c    ****     */
 169:Src/main.c    ****   HAL_SYSTICK_CLKSourceConfig(SYSTICK_CLKSOURCE_HCLK);
 170:Src/main.c    **** 
 171:Src/main.c    ****   /* SysTick_IRQn interrupt configuration */
 172:Src/main.c    ****   HAL_NVIC_SetPriority(SysTick_IRQn, 0, 0);
 173:Src/main.c    **** }
 174:Src/main.c    **** 
 175:Src/main.c    **** /** Configure pins as 
 176:Src/main.c    ****         * Analog 
 177:Src/main.c    ****         * Input 
 178:Src/main.c    ****         * Output
 179:Src/main.c    ****         * EVENT_OUT
 180:Src/main.c    ****         * EXTI
 181:Src/main.c    **** */
 182:Src/main.c    **** static void MX_GPIO_Init(void)
 183:Src/main.c    **** {
  27              		.loc 1 183 0
  28              		.cfi_startproc
  29              		@ args = 0, pretend = 0, frame = 32
  30              		@ frame_needed = 0, uses_anonymous_args = 0
  31 0000 70B5     		push	{r4, r5, r6, lr}
  32              	.LCFI0:
  33              		.cfi_def_cfa_offset 16
  34              		.cfi_offset 4, -16
  35              		.cfi_offset 5, -12
  36              		.cfi_offset 6, -8
  37              		.cfi_offset 14, -4
  38 0002 88B0     		sub	sp, sp, #32
  39              	.LCFI1:
  40              		.cfi_def_cfa_offset 48
  41              	.LBB2:
 184:Src/main.c    **** 
 185:Src/main.c    ****   GPIO_InitTypeDef GPIO_InitStruct;
 186:Src/main.c    **** 
 187:Src/main.c    ****   /* GPIO Ports Clock Enable */
 188:Src/main.c    ****   __HAL_RCC_GPIOA_CLK_ENABLE();
ARM GAS  /tmp/ccX35DtH.s 			page 5


  42              		.loc 1 188 0
  43 0004 254B     		ldr	r3, .L3
  44 0006 5A69     		ldr	r2, [r3, #20]
  45 0008 42F40032 		orr	r2, r2, #131072
  46 000c 5A61     		str	r2, [r3, #20]
  47 000e 5A69     		ldr	r2, [r3, #20]
  48 0010 02F40032 		and	r2, r2, #131072
  49 0014 0192     		str	r2, [sp, #4]
  50 0016 019A     		ldr	r2, [sp, #4]
  51              	.LBE2:
  52              	.LBB3:
 189:Src/main.c    ****   __HAL_RCC_GPIOE_CLK_ENABLE();
  53              		.loc 1 189 0
  54 0018 5A69     		ldr	r2, [r3, #20]
  55 001a 42F40012 		orr	r2, r2, #2097152
  56 001e 5A61     		str	r2, [r3, #20]
  57 0020 5B69     		ldr	r3, [r3, #20]
  58 0022 03F40013 		and	r3, r3, #2097152
  59 0026 0293     		str	r3, [sp, #8]
  60 0028 029B     		ldr	r3, [sp, #8]
  61              	.LBE3:
 190:Src/main.c    **** 
 191:Src/main.c    ****   /*Configure GPIO pin Output Level */
 192:Src/main.c    ****   HAL_GPIO_WritePin(GPIOA, Manch_Tx_Pin|Hardware_Trigger_Pin, GPIO_PIN_RESET);
  62              		.loc 1 192 0
  63 002a 0022     		movs	r2, #0
  64 002c 1421     		movs	r1, #20
  65 002e 4FF09040 		mov	r0, #1207959552
  66 0032 FFF7FEFF 		bl	HAL_GPIO_WritePin
  67              	.LVL0:
 193:Src/main.c    **** 
 194:Src/main.c    ****   /*Configure GPIO pin Output Level */
 195:Src/main.c    ****   HAL_GPIO_WritePin(GPIOE, LED_Blue_Pin|LED_Red_Pin|LED_Orange_Pin|LED_Green_Pin 
  68              		.loc 1 195 0
  69 0036 1A4E     		ldr	r6, .L3+4
  70 0038 0022     		movs	r2, #0
  71 003a 4FF4F851 		mov	r1, #7936
  72 003e 3046     		mov	r0, r6
  73 0040 FFF7FEFF 		bl	HAL_GPIO_WritePin
  74              	.LVL1:
 196:Src/main.c    ****                           |LED_BLUE_Pin, GPIO_PIN_RESET);
 197:Src/main.c    **** 
 198:Src/main.c    ****   /*Configure GPIO pin : USER_BUTTON_Pin */
 199:Src/main.c    ****   GPIO_InitStruct.Pin = USER_BUTTON_Pin;
  75              		.loc 1 199 0
  76 0044 0125     		movs	r5, #1
  77 0046 0395     		str	r5, [sp, #12]
 200:Src/main.c    ****   GPIO_InitStruct.Mode = GPIO_MODE_IT_RISING;
  78              		.loc 1 200 0
  79 0048 164B     		ldr	r3, .L3+8
  80 004a 0493     		str	r3, [sp, #16]
 201:Src/main.c    ****   GPIO_InitStruct.Pull = GPIO_PULLDOWN;
  81              		.loc 1 201 0
  82 004c 0224     		movs	r4, #2
  83 004e 0594     		str	r4, [sp, #20]
 202:Src/main.c    ****   HAL_GPIO_Init(USER_BUTTON_GPIO_Port, &GPIO_InitStruct);
  84              		.loc 1 202 0
ARM GAS  /tmp/ccX35DtH.s 			page 6


  85 0050 03A9     		add	r1, sp, #12
  86 0052 4FF09040 		mov	r0, #1207959552
  87 0056 FFF7FEFF 		bl	HAL_GPIO_Init
  88              	.LVL2:
 203:Src/main.c    **** 
 204:Src/main.c    ****   /*Configure GPIO pins : Manch_Tx_Pin Hardware_Trigger_Pin */
 205:Src/main.c    ****   GPIO_InitStruct.Pin = Manch_Tx_Pin|Hardware_Trigger_Pin;
  89              		.loc 1 205 0
  90 005a 1423     		movs	r3, #20
  91 005c 0393     		str	r3, [sp, #12]
 206:Src/main.c    ****   GPIO_InitStruct.Mode = GPIO_MODE_OUTPUT_PP;
  92              		.loc 1 206 0
  93 005e 0495     		str	r5, [sp, #16]
 207:Src/main.c    ****   GPIO_InitStruct.Pull = GPIO_PULLDOWN;
  94              		.loc 1 207 0
  95 0060 0594     		str	r4, [sp, #20]
 208:Src/main.c    ****   GPIO_InitStruct.Speed = GPIO_SPEED_FREQ_HIGH;
  96              		.loc 1 208 0
  97 0062 0323     		movs	r3, #3
  98 0064 0693     		str	r3, [sp, #24]
 209:Src/main.c    ****   HAL_GPIO_Init(GPIOA, &GPIO_InitStruct);
  99              		.loc 1 209 0
 100 0066 03A9     		add	r1, sp, #12
 101 0068 4FF09040 		mov	r0, #1207959552
 102 006c FFF7FEFF 		bl	HAL_GPIO_Init
 103              	.LVL3:
 210:Src/main.c    **** 
 211:Src/main.c    ****   /*Configure GPIO pins : LED_Blue_Pin LED_Red_Pin LED_Orange_Pin LED_Green_Pin 
 212:Src/main.c    ****                            LED_BLUE_Pin */
 213:Src/main.c    ****   GPIO_InitStruct.Pin = LED_Blue_Pin|LED_Red_Pin|LED_Orange_Pin|LED_Green_Pin 
 104              		.loc 1 213 0
 105 0070 4FF4F853 		mov	r3, #7936
 106 0074 0393     		str	r3, [sp, #12]
 214:Src/main.c    ****                           |LED_BLUE_Pin;
 215:Src/main.c    ****   GPIO_InitStruct.Mode = GPIO_MODE_OUTPUT_PP;
 107              		.loc 1 215 0
 108 0076 0495     		str	r5, [sp, #16]
 216:Src/main.c    ****   GPIO_InitStruct.Pull = GPIO_PULLDOWN;
 109              		.loc 1 216 0
 110 0078 0594     		str	r4, [sp, #20]
 217:Src/main.c    ****   GPIO_InitStruct.Speed = GPIO_SPEED_FREQ_LOW;
 111              		.loc 1 217 0
 112 007a 0024     		movs	r4, #0
 113 007c 0694     		str	r4, [sp, #24]
 218:Src/main.c    ****   HAL_GPIO_Init(GPIOE, &GPIO_InitStruct);
 114              		.loc 1 218 0
 115 007e 03A9     		add	r1, sp, #12
 116 0080 3046     		mov	r0, r6
 117 0082 FFF7FEFF 		bl	HAL_GPIO_Init
 118              	.LVL4:
 219:Src/main.c    **** 
 220:Src/main.c    ****   /* EXTI interrupt init*/
 221:Src/main.c    ****   HAL_NVIC_SetPriority(EXTI0_IRQn, 0, 0);
 119              		.loc 1 221 0
 120 0086 2246     		mov	r2, r4
 121 0088 2146     		mov	r1, r4
 122 008a 0620     		movs	r0, #6
ARM GAS  /tmp/ccX35DtH.s 			page 7


 123 008c FFF7FEFF 		bl	HAL_NVIC_SetPriority
 124              	.LVL5:
 222:Src/main.c    ****   HAL_NVIC_EnableIRQ(EXTI0_IRQn);
 125              		.loc 1 222 0
 126 0090 0620     		movs	r0, #6
 127 0092 FFF7FEFF 		bl	HAL_NVIC_EnableIRQ
 128              	.LVL6:
 223:Src/main.c    **** 
 224:Src/main.c    **** }
 129              		.loc 1 224 0
 130 0096 08B0     		add	sp, sp, #32
 131              	.LCFI2:
 132              		.cfi_def_cfa_offset 16
 133              		@ sp needed
 134 0098 70BD     		pop	{r4, r5, r6, pc}
 135              	.L4:
 136 009a 00BF     		.align	2
 137              	.L3:
 138 009c 00100240 		.word	1073876992
 139 00a0 00100048 		.word	1207963648
 140 00a4 00001110 		.word	269549568
 141              		.cfi_endproc
 142              	.LFE126:
 144              		.section	.text.DWT_Delay_us,"ax",%progbits
 145              		.align	1
 146              		.syntax unified
 147              		.thumb
 148              		.thumb_func
 149              		.fpu fpv4-sp-d16
 151              	DWT_Delay_us:
 152              	.LFB123:
 153              		.file 2 "Inc/dwt_stm32_delay.h"
   1:Inc/dwt_stm32_delay.h **** #ifndef DWT_STM32_DELAY_H
   2:Inc/dwt_stm32_delay.h **** #define DWT_STM32_DELAY_H
   3:Inc/dwt_stm32_delay.h **** 
   4:Inc/dwt_stm32_delay.h **** #ifdef __cplusplus
   5:Inc/dwt_stm32_delay.h **** extern "C" {
   6:Inc/dwt_stm32_delay.h **** #endif
   7:Inc/dwt_stm32_delay.h **** 
   8:Inc/dwt_stm32_delay.h **** 
   9:Inc/dwt_stm32_delay.h **** #include "stm32f3xx_hal.h"
  10:Inc/dwt_stm32_delay.h **** 
  11:Inc/dwt_stm32_delay.h ****   /**
  12:Inc/dwt_stm32_delay.h ****    * @brief  Initializes DWT_Cycle_Count for DWT_Delay_us function
  13:Inc/dwt_stm32_delay.h ****    * @return Error DWT counter
  14:Inc/dwt_stm32_delay.h ****    *         1: DWT counter Error
  15:Inc/dwt_stm32_delay.h ****    *         0: DWT counter works
  16:Inc/dwt_stm32_delay.h ****    */
  17:Inc/dwt_stm32_delay.h ****   uint32_t DWT_Delay_Init(void);
  18:Inc/dwt_stm32_delay.h **** 
  19:Inc/dwt_stm32_delay.h **** 
  20:Inc/dwt_stm32_delay.h **** 
  21:Inc/dwt_stm32_delay.h ****   /**
  22:Inc/dwt_stm32_delay.h ****    * @brief  This function provides a delay (in microseconds)
  23:Inc/dwt_stm32_delay.h ****    * @param  microseconds: delay in microseconds
  24:Inc/dwt_stm32_delay.h ****    */
  25:Inc/dwt_stm32_delay.h ****   __STATIC_INLINE void DWT_Delay_us(volatile uint32_t microseconds)
ARM GAS  /tmp/ccX35DtH.s 			page 8


  26:Inc/dwt_stm32_delay.h ****   {
 154              		.loc 2 26 0
 155              		.cfi_startproc
 156              		@ args = 0, pretend = 0, frame = 8
 157              		@ frame_needed = 0, uses_anonymous_args = 0
 158              	.LVL7:
 159 0000 10B5     		push	{r4, lr}
 160              	.LCFI3:
 161              		.cfi_def_cfa_offset 8
 162              		.cfi_offset 4, -8
 163              		.cfi_offset 14, -4
 164 0002 82B0     		sub	sp, sp, #8
 165              	.LCFI4:
 166              		.cfi_def_cfa_offset 16
 167 0004 0190     		str	r0, [sp, #4]
  27:Inc/dwt_stm32_delay.h ****     uint32_t clk_cycle_start = DWT->CYCCNT;
 168              		.loc 2 27 0
 169 0006 0A4B     		ldr	r3, .L8
 170 0008 5C68     		ldr	r4, [r3, #4]
 171              	.LVL8:
  28:Inc/dwt_stm32_delay.h **** 
  29:Inc/dwt_stm32_delay.h ****     /* Go to number of cycles for system */
  30:Inc/dwt_stm32_delay.h ****     microseconds *= (HAL_RCC_GetHCLKFreq() / 1000000);
 172              		.loc 2 30 0
 173 000a FFF7FEFF 		bl	HAL_RCC_GetHCLKFreq
 174              	.LVL9:
 175 000e 094B     		ldr	r3, .L8+4
 176 0010 A3FB0030 		umull	r3, r0, r3, r0
 177 0014 800C     		lsrs	r0, r0, #18
 178 0016 019B     		ldr	r3, [sp, #4]
 179 0018 03FB00F0 		mul	r0, r3, r0
 180 001c 0190     		str	r0, [sp, #4]
 181              	.LVL10:
 182              	.L6:
  31:Inc/dwt_stm32_delay.h **** 
  32:Inc/dwt_stm32_delay.h ****     /* Delay till end */
  33:Inc/dwt_stm32_delay.h ****     while ((DWT->CYCCNT - clk_cycle_start) < microseconds);
 183              		.loc 2 33 0 discriminator 1
 184 001e 044B     		ldr	r3, .L8
 185 0020 5B68     		ldr	r3, [r3, #4]
 186 0022 1B1B     		subs	r3, r3, r4
 187 0024 019A     		ldr	r2, [sp, #4]
 188 0026 9342     		cmp	r3, r2
 189 0028 F9D3     		bcc	.L6
  34:Inc/dwt_stm32_delay.h ****   }
 190              		.loc 2 34 0
 191 002a 02B0     		add	sp, sp, #8
 192              	.LCFI5:
 193              		.cfi_def_cfa_offset 8
 194              		@ sp needed
 195 002c 10BD     		pop	{r4, pc}
 196              	.LVL11:
 197              	.L9:
 198 002e 00BF     		.align	2
 199              	.L8:
 200 0030 001000E0 		.word	-536866816
 201 0034 83DE1B43 		.word	1125899907
ARM GAS  /tmp/ccX35DtH.s 			page 9


 202              		.cfi_endproc
 203              	.LFE123:
 205              		.section	.text.Manch_Tx,"ax",%progbits
 206              		.align	1
 207              		.syntax unified
 208              		.thumb
 209              		.thumb_func
 210              		.fpu fpv4-sp-d16
 212              	Manch_Tx:
 213              	.LFB127:
 225:Src/main.c    **** 
 226:Src/main.c    **** /* USER CODE BEGIN 4 */
 227:Src/main.c    **** void Manch_Tx(unsigned int response)
 228:Src/main.c    **** {
 214              		.loc 1 228 0
 215              		.cfi_startproc
 216              		@ args = 0, pretend = 0, frame = 0
 217              		@ frame_needed = 0, uses_anonymous_args = 0
 218              	.LVL12:
 219 0000 F8B5     		push	{r3, r4, r5, r6, r7, lr}
 220              	.LCFI6:
 221              		.cfi_def_cfa_offset 24
 222              		.cfi_offset 3, -24
 223              		.cfi_offset 4, -20
 224              		.cfi_offset 5, -16
 225              		.cfi_offset 6, -12
 226              		.cfi_offset 7, -8
 227              		.cfi_offset 14, -4
 228 0002 0546     		mov	r5, r0
 229              	.LVL13:
 229:Src/main.c    ****   unsigned int bit_mask = 0x80;
 230:Src/main.c    ****   /* Start bit */
 231:Src/main.c    ****   HAL_GPIO_WritePin(Manch_Tx_GPIO_Port, Manch_Tx_Pin, GPIO_PIN_SET);
 230              		.loc 1 231 0
 231 0004 0122     		movs	r2, #1
 232 0006 0421     		movs	r1, #4
 233 0008 4FF09040 		mov	r0, #1207959552
 234              	.LVL14:
 235 000c FFF7FEFF 		bl	HAL_GPIO_WritePin
 236              	.LVL15:
 232:Src/main.c    ****   DWT_Delay_us(10*T);
 237              		.loc 1 232 0
 238 0010 4FF48250 		mov	r0, #4160
 239 0014 FFF7FEFF 		bl	DWT_Delay_us
 240              	.LVL16:
 233:Src/main.c    ****   HAL_GPIO_WritePin(Manch_Tx_GPIO_Port, Manch_Tx_Pin, GPIO_PIN_RESET);
 241              		.loc 1 233 0
 242 0018 0022     		movs	r2, #0
 243 001a 0421     		movs	r1, #4
 244 001c 4FF09040 		mov	r0, #1207959552
 245 0020 FFF7FEFF 		bl	HAL_GPIO_WritePin
 246              	.LVL17:
 234:Src/main.c    ****   DWT_Delay_us(T);
 247              		.loc 1 234 0
 248 0024 4FF4D070 		mov	r0, #416
 249 0028 FFF7FEFF 		bl	DWT_Delay_us
 250              	.LVL18:
ARM GAS  /tmp/ccX35DtH.s 			page 10


 235:Src/main.c    ****   HAL_GPIO_WritePin(Manch_Tx_GPIO_Port, Manch_Tx_Pin, GPIO_PIN_SET);
 251              		.loc 1 235 0
 252 002c 0122     		movs	r2, #1
 253 002e 0421     		movs	r1, #4
 254 0030 4FF09040 		mov	r0, #1207959552
 255 0034 FFF7FEFF 		bl	HAL_GPIO_WritePin
 256              	.LVL19:
 236:Src/main.c    ****   DWT_Delay_us(T);
 257              		.loc 1 236 0
 258 0038 4FF4D070 		mov	r0, #416
 259 003c FFF7FEFF 		bl	DWT_Delay_us
 260              	.LVL20:
 229:Src/main.c    ****   /* Start bit */
 261              		.loc 1 229 0
 262 0040 8024     		movs	r4, #128
 237:Src/main.c    ****   /* while looop */
 238:Src/main.c    ****   while(bit_mask)
 263              		.loc 1 238 0
 264 0042 2EE0     		b	.L11
 265              	.LVL21:
 266              	.L12:
 239:Src/main.c    ****     {
 240:Src/main.c    ****       if(bit_mask & response)
 241:Src/main.c    **** 	{
 242:Src/main.c    **** 	  /* Transmit '1' */
 243:Src/main.c    **** 	  HAL_GPIO_WritePin(Manch_Tx_GPIO_Port, Manch_Tx_Pin, GPIO_PIN_RESET);
 244:Src/main.c    **** 	  DWT_Delay_us(T);
 245:Src/main.c    **** 	  HAL_GPIO_WritePin(Manch_Tx_GPIO_Port, Manch_Tx_Pin, GPIO_PIN_SET);
 246:Src/main.c    **** 	  DWT_Delay_us(T);
 247:Src/main.c    **** 	}
 248:Src/main.c    ****       else
 249:Src/main.c    **** 	{
 250:Src/main.c    **** 	  /* Transmit 0 */
 251:Src/main.c    **** 	  HAL_GPIO_WritePin(Manch_Tx_GPIO_Port, Manch_Tx_Pin, GPIO_PIN_SET);
 267              		.loc 1 251 0
 268 0044 0122     		movs	r2, #1
 269 0046 0421     		movs	r1, #4
 270 0048 4FF09040 		mov	r0, #1207959552
 271 004c FFF7FEFF 		bl	HAL_GPIO_WritePin
 272              	.LVL22:
 273 0050 4FF4D076 		mov	r6, #416
 274              	.LVL23:
 275              	.LBB12:
 276              	.LBB13:
  27:Inc/dwt_stm32_delay.h **** 
 277              		.loc 2 27 0
 278 0054 2F4B     		ldr	r3, .L21
 279 0056 5F68     		ldr	r7, [r3, #4]
 280              	.LVL24:
  30:Inc/dwt_stm32_delay.h **** 
 281              		.loc 2 30 0
 282 0058 FFF7FEFF 		bl	HAL_RCC_GetHCLKFreq
 283              	.LVL25:
 284 005c 2E4B     		ldr	r3, .L21+4
 285 005e A3FB0030 		umull	r3, r0, r3, r0
 286 0062 800C     		lsrs	r0, r0, #18
 287 0064 06FB00F6 		mul	r6, r6, r0
ARM GAS  /tmp/ccX35DtH.s 			page 11


 288              	.L16:
  33:Inc/dwt_stm32_delay.h ****   }
 289              		.loc 2 33 0
 290 0068 2A4B     		ldr	r3, .L21
 291 006a 5B68     		ldr	r3, [r3, #4]
 292 006c DB1B     		subs	r3, r3, r7
 293 006e B342     		cmp	r3, r6
 294 0070 FAD3     		bcc	.L16
 295              	.LVL26:
 296              	.LBE13:
 297              	.LBE12:
 252:Src/main.c    **** 	  DWT_Delay_us(T);
 253:Src/main.c    **** 	  HAL_GPIO_WritePin(Manch_Tx_GPIO_Port, Manch_Tx_Pin, GPIO_PIN_RESET);
 298              		.loc 1 253 0
 299 0072 0022     		movs	r2, #0
 300 0074 0421     		movs	r1, #4
 301 0076 4FF09040 		mov	r0, #1207959552
 302 007a FFF7FEFF 		bl	HAL_GPIO_WritePin
 303              	.LVL27:
 304 007e 4FF4D076 		mov	r6, #416
 305              	.LVL28:
 306              	.LBB14:
 307              	.LBB15:
  27:Inc/dwt_stm32_delay.h **** 
 308              		.loc 2 27 0
 309 0082 244B     		ldr	r3, .L21
 310 0084 5F68     		ldr	r7, [r3, #4]
 311              	.LVL29:
  30:Inc/dwt_stm32_delay.h **** 
 312              		.loc 2 30 0
 313 0086 FFF7FEFF 		bl	HAL_RCC_GetHCLKFreq
 314              	.LVL30:
 315 008a 234B     		ldr	r3, .L21+4
 316 008c A3FB0030 		umull	r3, r0, r3, r0
 317 0090 800C     		lsrs	r0, r0, #18
 318 0092 06FB00F6 		mul	r6, r6, r0
 319              	.L17:
  33:Inc/dwt_stm32_delay.h ****   }
 320              		.loc 2 33 0
 321 0096 1F4B     		ldr	r3, .L21
 322 0098 5B68     		ldr	r3, [r3, #4]
 323 009a DB1B     		subs	r3, r3, r7
 324 009c B342     		cmp	r3, r6
 325 009e FAD3     		bcc	.L17
 326              	.LVL31:
 327              	.L15:
 328              	.LBE15:
 329              	.LBE14:
 254:Src/main.c    **** 	  DWT_Delay_us(T);
 255:Src/main.c    **** 	}
 256:Src/main.c    ****       bit_mask = bit_mask >> 1;
 330              		.loc 1 256 0
 331 00a0 6408     		lsrs	r4, r4, #1
 332              	.LVL32:
 333              	.L11:
 238:Src/main.c    ****     {
 334              		.loc 1 238 0
ARM GAS  /tmp/ccX35DtH.s 			page 12


 335 00a2 84B3     		cbz	r4, .L20
 240:Src/main.c    **** 	{
 336              		.loc 1 240 0
 337 00a4 2C42     		tst	r4, r5
 338 00a6 CDD0     		beq	.L12
 243:Src/main.c    **** 	  DWT_Delay_us(T);
 339              		.loc 1 243 0
 340 00a8 0022     		movs	r2, #0
 341 00aa 0421     		movs	r1, #4
 342 00ac 4FF09040 		mov	r0, #1207959552
 343 00b0 FFF7FEFF 		bl	HAL_GPIO_WritePin
 344              	.LVL33:
 345 00b4 4FF4D076 		mov	r6, #416
 346              	.LVL34:
 347              	.LBB16:
 348              	.LBB17:
  27:Inc/dwt_stm32_delay.h **** 
 349              		.loc 2 27 0
 350 00b8 164B     		ldr	r3, .L21
 351 00ba 5F68     		ldr	r7, [r3, #4]
 352              	.LVL35:
  30:Inc/dwt_stm32_delay.h **** 
 353              		.loc 2 30 0
 354 00bc FFF7FEFF 		bl	HAL_RCC_GetHCLKFreq
 355              	.LVL36:
 356 00c0 154B     		ldr	r3, .L21+4
 357 00c2 A3FB0030 		umull	r3, r0, r3, r0
 358 00c6 800C     		lsrs	r0, r0, #18
 359 00c8 06FB00F6 		mul	r6, r6, r0
 360              	.L13:
  33:Inc/dwt_stm32_delay.h ****   }
 361              		.loc 2 33 0
 362 00cc 114B     		ldr	r3, .L21
 363 00ce 5B68     		ldr	r3, [r3, #4]
 364 00d0 DB1B     		subs	r3, r3, r7
 365 00d2 B342     		cmp	r3, r6
 366 00d4 FAD3     		bcc	.L13
 367              	.LVL37:
 368              	.LBE17:
 369              	.LBE16:
 245:Src/main.c    **** 	  DWT_Delay_us(T);
 370              		.loc 1 245 0
 371 00d6 0122     		movs	r2, #1
 372 00d8 0421     		movs	r1, #4
 373 00da 4FF09040 		mov	r0, #1207959552
 374 00de FFF7FEFF 		bl	HAL_GPIO_WritePin
 375              	.LVL38:
 376 00e2 4FF4D076 		mov	r6, #416
 377              	.LVL39:
 378              	.LBB18:
 379              	.LBB19:
  27:Inc/dwt_stm32_delay.h **** 
 380              		.loc 2 27 0
 381 00e6 0B4B     		ldr	r3, .L21
 382 00e8 5F68     		ldr	r7, [r3, #4]
 383              	.LVL40:
  30:Inc/dwt_stm32_delay.h **** 
ARM GAS  /tmp/ccX35DtH.s 			page 13


 384              		.loc 2 30 0
 385 00ea FFF7FEFF 		bl	HAL_RCC_GetHCLKFreq
 386              	.LVL41:
 387 00ee 0A4B     		ldr	r3, .L21+4
 388 00f0 A3FB0030 		umull	r3, r0, r3, r0
 389 00f4 800C     		lsrs	r0, r0, #18
 390 00f6 06FB00F6 		mul	r6, r6, r0
 391              	.L14:
  33:Inc/dwt_stm32_delay.h ****   }
 392              		.loc 2 33 0
 393 00fa 064B     		ldr	r3, .L21
 394 00fc 5B68     		ldr	r3, [r3, #4]
 395 00fe DB1B     		subs	r3, r3, r7
 396 0100 B342     		cmp	r3, r6
 397 0102 FAD3     		bcc	.L14
 398 0104 CCE7     		b	.L15
 399              	.LVL42:
 400              	.L20:
 401              	.LBE19:
 402              	.LBE18:
 257:Src/main.c    ****     }
 258:Src/main.c    ****   HAL_GPIO_WritePin(Manch_Tx_GPIO_Port, Manch_Tx_Pin, GPIO_PIN_SET);
 403              		.loc 1 258 0
 404 0106 0122     		movs	r2, #1
 405 0108 0421     		movs	r1, #4
 406 010a 4FF09040 		mov	r0, #1207959552
 407 010e FFF7FEFF 		bl	HAL_GPIO_WritePin
 408              	.LVL43:
 409 0112 F8BD     		pop	{r3, r4, r5, r6, r7, pc}
 410              	.LVL44:
 411              	.L22:
 412              		.align	2
 413              	.L21:
 414 0114 001000E0 		.word	-536866816
 415 0118 83DE1B43 		.word	1125899907
 416              		.cfi_endproc
 417              	.LFE127:
 419              		.section	.text._Error_Handler,"ax",%progbits
 420              		.align	1
 421              		.global	_Error_Handler
 422              		.syntax unified
 423              		.thumb
 424              		.thumb_func
 425              		.fpu fpv4-sp-d16
 427              	_Error_Handler:
 428              	.LFB128:
 259:Src/main.c    **** }
 260:Src/main.c    **** /* USER CODE END 4 */
 261:Src/main.c    **** 
 262:Src/main.c    **** /**
 263:Src/main.c    ****   * @brief  This function is executed in case of error occurrence.
 264:Src/main.c    ****   * @param  None
 265:Src/main.c    ****   * @retval None
 266:Src/main.c    ****   */
 267:Src/main.c    **** void _Error_Handler(char * file, int line)
 268:Src/main.c    **** {
 429              		.loc 1 268 0
ARM GAS  /tmp/ccX35DtH.s 			page 14


 430              		.cfi_startproc
 431              		@ Volatile: function does not return.
 432              		@ args = 0, pretend = 0, frame = 0
 433              		@ frame_needed = 0, uses_anonymous_args = 0
 434              	.LVL45:
 435 0000 08B5     		push	{r3, lr}
 436              	.LCFI7:
 437              		.cfi_def_cfa_offset 8
 438              		.cfi_offset 3, -8
 439              		.cfi_offset 14, -4
 269:Src/main.c    ****   /* USER CODE BEGIN Error_Handler_Debug */
 270:Src/main.c    ****   /* Toggle LD5(Orange) LED */
 271:Src/main.c    ****   HAL_GPIO_WritePin(LED_Orange_GPIO_Port, LED_Orange_Pin, GPIO_PIN_SET);
 440              		.loc 1 271 0
 441 0002 0122     		movs	r2, #1
 442 0004 4FF48061 		mov	r1, #1024
 443              	.LVL46:
 444 0008 0148     		ldr	r0, .L26
 445              	.LVL47:
 446 000a FFF7FEFF 		bl	HAL_GPIO_WritePin
 447              	.LVL48:
 448              	.L24:
 449 000e FEE7     		b	.L24
 450              	.L27:
 451              		.align	2
 452              	.L26:
 453 0010 00100048 		.word	1207963648
 454              		.cfi_endproc
 455              	.LFE128:
 457              		.section	.text.SystemClock_Config,"ax",%progbits
 458              		.align	1
 459              		.global	SystemClock_Config
 460              		.syntax unified
 461              		.thumb
 462              		.thumb_func
 463              		.fpu fpv4-sp-d16
 465              	SystemClock_Config:
 466              	.LFB125:
 131:Src/main.c    **** 
 467              		.loc 1 131 0
 468              		.cfi_startproc
 469              		@ args = 0, pretend = 0, frame = 64
 470              		@ frame_needed = 0, uses_anonymous_args = 0
 471 0000 00B5     		push	{lr}
 472              	.LCFI8:
 473              		.cfi_def_cfa_offset 4
 474              		.cfi_offset 14, -4
 475 0002 91B0     		sub	sp, sp, #68
 476              	.LCFI9:
 477              		.cfi_def_cfa_offset 72
 138:Src/main.c    ****   RCC_OscInitStruct.HSIState = RCC_HSI_ON;
 478              		.loc 1 138 0
 479 0004 0223     		movs	r3, #2
 480 0006 0693     		str	r3, [sp, #24]
 139:Src/main.c    ****   RCC_OscInitStruct.HSICalibrationValue = 16;
 481              		.loc 1 139 0
 482 0008 0122     		movs	r2, #1
ARM GAS  /tmp/ccX35DtH.s 			page 15


 483 000a 0A92     		str	r2, [sp, #40]
 140:Src/main.c    ****   RCC_OscInitStruct.PLL.PLLState = RCC_PLL_ON;
 484              		.loc 1 140 0
 485 000c 1022     		movs	r2, #16
 486 000e 0B92     		str	r2, [sp, #44]
 141:Src/main.c    ****   RCC_OscInitStruct.PLL.PLLSource = RCC_PLLSOURCE_HSI;
 487              		.loc 1 141 0
 488 0010 0D93     		str	r3, [sp, #52]
 142:Src/main.c    ****   RCC_OscInitStruct.PLL.PLLMUL = RCC_PLL_MUL8;
 489              		.loc 1 142 0
 490 0012 0023     		movs	r3, #0
 491 0014 0E93     		str	r3, [sp, #56]
 143:Src/main.c    ****   if (HAL_RCC_OscConfig(&RCC_OscInitStruct) != HAL_OK)
 492              		.loc 1 143 0
 493 0016 4FF4C013 		mov	r3, #1572864
 494 001a 0F93     		str	r3, [sp, #60]
 144:Src/main.c    ****   {
 495              		.loc 1 144 0
 496 001c 06A8     		add	r0, sp, #24
 497 001e FFF7FEFF 		bl	HAL_RCC_OscConfig
 498              	.LVL49:
 499 0022 10BB     		cbnz	r0, .L32
 151:Src/main.c    ****                               |RCC_CLOCKTYPE_PCLK1|RCC_CLOCKTYPE_PCLK2;
 500              		.loc 1 151 0
 501 0024 0F23     		movs	r3, #15
 502 0026 0193     		str	r3, [sp, #4]
 153:Src/main.c    ****   RCC_ClkInitStruct.AHBCLKDivider = RCC_SYSCLK_DIV1;
 503              		.loc 1 153 0
 504 0028 0223     		movs	r3, #2
 505 002a 0293     		str	r3, [sp, #8]
 154:Src/main.c    ****   RCC_ClkInitStruct.APB1CLKDivider = RCC_HCLK_DIV4;
 506              		.loc 1 154 0
 507 002c 0023     		movs	r3, #0
 508 002e 0393     		str	r3, [sp, #12]
 155:Src/main.c    ****   RCC_ClkInitStruct.APB2CLKDivider = RCC_HCLK_DIV1;
 509              		.loc 1 155 0
 510 0030 4FF4A062 		mov	r2, #1280
 511 0034 0492     		str	r2, [sp, #16]
 156:Src/main.c    **** 
 512              		.loc 1 156 0
 513 0036 0593     		str	r3, [sp, #20]
 158:Src/main.c    ****   {
 514              		.loc 1 158 0
 515 0038 0121     		movs	r1, #1
 516 003a 01A8     		add	r0, sp, #4
 517 003c FFF7FEFF 		bl	HAL_RCC_ClockConfig
 518              	.LVL50:
 519 0040 B8B9     		cbnz	r0, .L33
 165:Src/main.c    **** 
 520              		.loc 1 165 0
 521 0042 FFF7FEFF 		bl	HAL_RCC_GetHCLKFreq
 522              	.LVL51:
 523 0046 0D4B     		ldr	r3, .L34
 524 0048 A3FB0030 		umull	r3, r0, r3, r0
 525 004c 8009     		lsrs	r0, r0, #6
 526 004e FFF7FEFF 		bl	HAL_SYSTICK_Config
 527              	.LVL52:
ARM GAS  /tmp/ccX35DtH.s 			page 16


 169:Src/main.c    **** 
 528              		.loc 1 169 0
 529 0052 0420     		movs	r0, #4
 530 0054 FFF7FEFF 		bl	HAL_SYSTICK_CLKSourceConfig
 531              	.LVL53:
 172:Src/main.c    **** }
 532              		.loc 1 172 0
 533 0058 0022     		movs	r2, #0
 534 005a 1146     		mov	r1, r2
 535 005c 4FF0FF30 		mov	r0, #-1
 536 0060 FFF7FEFF 		bl	HAL_NVIC_SetPriority
 537              	.LVL54:
 173:Src/main.c    **** 
 538              		.loc 1 173 0
 539 0064 11B0     		add	sp, sp, #68
 540              	.LCFI10:
 541              		.cfi_remember_state
 542              		.cfi_def_cfa_offset 4
 543              		@ sp needed
 544 0066 5DF804FB 		ldr	pc, [sp], #4
 545              	.L32:
 546              	.LCFI11:
 547              		.cfi_restore_state
 146:Src/main.c    ****   }
 548              		.loc 1 146 0
 549 006a 9221     		movs	r1, #146
 550 006c 0448     		ldr	r0, .L34+4
 551 006e FFF7FEFF 		bl	_Error_Handler
 552              	.LVL55:
 553              	.L33:
 160:Src/main.c    ****   }
 554              		.loc 1 160 0
 555 0072 A021     		movs	r1, #160
 556 0074 0248     		ldr	r0, .L34+4
 557 0076 FFF7FEFF 		bl	_Error_Handler
 558              	.LVL56:
 559              	.L35:
 560 007a 00BF     		.align	2
 561              	.L34:
 562 007c D34D6210 		.word	274877907
 563 0080 00000000 		.word	.LC0
 564              		.cfi_endproc
 565              	.LFE125:
 567              		.section	.text.main,"ax",%progbits
 568              		.align	1
 569              		.global	main
 570              		.syntax unified
 571              		.thumb
 572              		.thumb_func
 573              		.fpu fpv4-sp-d16
 575              	main:
 576              	.LFB124:
  73:Src/main.c    **** 
 577              		.loc 1 73 0
 578              		.cfi_startproc
 579              		@ Volatile: function does not return.
 580              		@ args = 0, pretend = 0, frame = 0
ARM GAS  /tmp/ccX35DtH.s 			page 17


 581              		@ frame_needed = 0, uses_anonymous_args = 0
 582 0000 08B5     		push	{r3, lr}
 583              	.LCFI12:
 584              		.cfi_def_cfa_offset 8
 585              		.cfi_offset 3, -8
 586              		.cfi_offset 14, -4
  82:Src/main.c    **** 
 587              		.loc 1 82 0
 588 0002 FFF7FEFF 		bl	HAL_Init
 589              	.LVL57:
  89:Src/main.c    **** 
 590              		.loc 1 89 0
 591 0006 FFF7FEFF 		bl	SystemClock_Config
 592              	.LVL58:
  96:Src/main.c    **** 
 593              		.loc 1 96 0
 594 000a FFF7FEFF 		bl	MX_GPIO_Init
 595              	.LVL59:
 100:Src/main.c    ****     {
 596              		.loc 1 100 0
 597 000e FFF7FEFF 		bl	DWT_Delay_Init
 598              	.LVL60:
 599 0012 90B9     		cbnz	r0, .L40
 600              	.L37:
 104:Src/main.c    ****     {
 601              		.loc 1 104 0 discriminator 1
 602 0014 0B4B     		ldr	r3, .L41
 603 0016 1B78     		ldrb	r3, [r3]	@ zero_extendqisi2
 604 0018 002B     		cmp	r3, #0
 605 001a FBD0     		beq	.L37
 108:Src/main.c    ****   Manch_Tx(response);
 606              		.loc 1 108 0
 607 001c 0A20     		movs	r0, #10
 608 001e FFF7FEFF 		bl	DWT_Delay_us
 609              	.LVL61:
 109:Src/main.c    ****   
 610              		.loc 1 109 0
 611 0022 D420     		movs	r0, #212
 612 0024 FFF7FEFF 		bl	Manch_Tx
 613              	.LVL62:
 614              	.L38:
 117:Src/main.c    ****   HAL_Delay(250);
 615              		.loc 1 117 0 discriminator 1
 616 0028 4FF40061 		mov	r1, #2048
 617 002c 0648     		ldr	r0, .L41+4
 618 002e FFF7FEFF 		bl	HAL_GPIO_TogglePin
 619              	.LVL63:
 118:Src/main.c    ****   /* USER CODE END WHILE */
 620              		.loc 1 118 0 discriminator 1
 621 0032 FA20     		movs	r0, #250
 622 0034 FFF7FEFF 		bl	HAL_Delay
 623              	.LVL64:
 624 0038 F6E7     		b	.L38
 625              	.L40:
 102:Src/main.c    ****     }
 626              		.loc 1 102 0
 627 003a 6621     		movs	r1, #102
ARM GAS  /tmp/ccX35DtH.s 			page 18


 628 003c 0348     		ldr	r0, .L41+8
 629 003e FFF7FEFF 		bl	_Error_Handler
 630              	.LVL65:
 631              	.L42:
 632 0042 00BF     		.align	2
 633              	.L41:
 634 0044 00000000 		.word	.LANCHOR0
 635 0048 00100048 		.word	1207963648
 636 004c 00000000 		.word	.LC0
 637              		.cfi_endproc
 638              	.LFE124:
 640              		.section	.text.assert_failed,"ax",%progbits
 641              		.align	1
 642              		.global	assert_failed
 643              		.syntax unified
 644              		.thumb
 645              		.thumb_func
 646              		.fpu fpv4-sp-d16
 648              	assert_failed:
 649              	.LFB129:
 272:Src/main.c    ****   /* User can add his own implementation to report the HAL error return state */
 273:Src/main.c    ****   while(1) 
 274:Src/main.c    ****   {
 275:Src/main.c    ****   }
 276:Src/main.c    ****   /* USER CODE END Error_Handler_Debug */ 
 277:Src/main.c    **** }
 278:Src/main.c    **** 
 279:Src/main.c    **** #ifdef USE_FULL_ASSERT
 280:Src/main.c    **** 
 281:Src/main.c    **** /**
 282:Src/main.c    ****    * @brief Reports the name of the source file and the source line number
 283:Src/main.c    ****    * where the assert_param error has occurred.
 284:Src/main.c    ****    * @param file: pointer to the source file name
 285:Src/main.c    ****    * @param line: assert_param error line source number
 286:Src/main.c    ****    * @retval None
 287:Src/main.c    ****    */
 288:Src/main.c    **** void assert_failed(uint8_t* file, uint32_t line)
 289:Src/main.c    **** {
 650              		.loc 1 289 0
 651              		.cfi_startproc
 652              		@ args = 0, pretend = 0, frame = 0
 653              		@ frame_needed = 0, uses_anonymous_args = 0
 654              		@ link register save eliminated.
 655              	.LVL66:
 656 0000 7047     		bx	lr
 657              		.cfi_endproc
 658              	.LFE129:
 660              		.global	interrupt_detected
 661              		.section	.bss.interrupt_detected,"aw",%nobits
 662              		.set	.LANCHOR0,. + 0
 665              	interrupt_detected:
 666 0000 00       		.space	1
 667              		.section	.rodata.SystemClock_Config.str1.4,"aMS",%progbits,1
 668              		.align	2
 669              	.LC0:
 670 0000 5372632F 		.ascii	"Src/main.c\000"
 670      6D61696E 
ARM GAS  /tmp/ccX35DtH.s 			page 19


 670      2E6300
 671              		.text
 672              	.Letext0:
 673              		.file 3 "/home/saicharan/arm/arm-none-eabi/include/machine/_default_types.h"
 674              		.file 4 "/home/saicharan/arm/arm-none-eabi/include/stdint.h"
 675              		.file 5 "Drivers/CMSIS/Include/core_cm4.h"
 676              		.file 6 "Drivers/CMSIS/Device/ST/STM32F3xx/Include/system_stm32f3xx.h"
 677              		.file 7 "Drivers/CMSIS/Device/ST/STM32F3xx/Include/stm32f303xc.h"
 678              		.file 8 "/home/saicharan/arm/arm-none-eabi/include/sys/lock.h"
 679              		.file 9 "/home/saicharan/arm/arm-none-eabi/include/sys/_types.h"
 680              		.file 10 "/home/saicharan/arm/lib/gcc/arm-none-eabi/6.3.0/include/stddef.h"
 681              		.file 11 "/home/saicharan/arm/arm-none-eabi/include/sys/reent.h"
 682              		.file 12 "Drivers/STM32F3xx_HAL_Driver/Inc/stm32f3xx_hal_def.h"
 683              		.file 13 "Drivers/STM32F3xx_HAL_Driver/Inc/stm32f3xx_hal_rcc.h"
 684              		.file 14 "Drivers/STM32F3xx_HAL_Driver/Inc/stm32f3xx_hal_gpio.h"
 685              		.file 15 "Drivers/STM32F3xx_HAL_Driver/Inc/stm32f3xx_hal_cortex.h"
 686              		.file 16 "Drivers/STM32F3xx_HAL_Driver/Inc/stm32f3xx_hal.h"
ARM GAS  /tmp/ccX35DtH.s 			page 20


DEFINED SYMBOLS
                            *ABS*:0000000000000000 main.c
     /tmp/ccX35DtH.s:18     .text.MX_GPIO_Init:0000000000000000 $t
     /tmp/ccX35DtH.s:24     .text.MX_GPIO_Init:0000000000000000 MX_GPIO_Init
     /tmp/ccX35DtH.s:138    .text.MX_GPIO_Init:000000000000009c $d
     /tmp/ccX35DtH.s:145    .text.DWT_Delay_us:0000000000000000 $t
     /tmp/ccX35DtH.s:151    .text.DWT_Delay_us:0000000000000000 DWT_Delay_us
     /tmp/ccX35DtH.s:200    .text.DWT_Delay_us:0000000000000030 $d
     /tmp/ccX35DtH.s:206    .text.Manch_Tx:0000000000000000 $t
     /tmp/ccX35DtH.s:212    .text.Manch_Tx:0000000000000000 Manch_Tx
     /tmp/ccX35DtH.s:414    .text.Manch_Tx:0000000000000114 $d
     /tmp/ccX35DtH.s:420    .text._Error_Handler:0000000000000000 $t
     /tmp/ccX35DtH.s:427    .text._Error_Handler:0000000000000000 _Error_Handler
     /tmp/ccX35DtH.s:453    .text._Error_Handler:0000000000000010 $d
     /tmp/ccX35DtH.s:458    .text.SystemClock_Config:0000000000000000 $t
     /tmp/ccX35DtH.s:465    .text.SystemClock_Config:0000000000000000 SystemClock_Config
     /tmp/ccX35DtH.s:562    .text.SystemClock_Config:000000000000007c $d
     /tmp/ccX35DtH.s:568    .text.main:0000000000000000 $t
     /tmp/ccX35DtH.s:575    .text.main:0000000000000000 main
     /tmp/ccX35DtH.s:634    .text.main:0000000000000044 $d
     /tmp/ccX35DtH.s:641    .text.assert_failed:0000000000000000 $t
     /tmp/ccX35DtH.s:648    .text.assert_failed:0000000000000000 assert_failed
     /tmp/ccX35DtH.s:665    .bss.interrupt_detected:0000000000000000 interrupt_detected
     /tmp/ccX35DtH.s:666    .bss.interrupt_detected:0000000000000000 $d
     /tmp/ccX35DtH.s:668    .rodata.SystemClock_Config.str1.4:0000000000000000 $d
                     .debug_frame:0000000000000010 $d

UNDEFINED SYMBOLS
HAL_GPIO_WritePin
HAL_GPIO_Init
HAL_NVIC_SetPriority
HAL_NVIC_EnableIRQ
HAL_RCC_GetHCLKFreq
HAL_RCC_OscConfig
HAL_RCC_ClockConfig
HAL_SYSTICK_Config
HAL_SYSTICK_CLKSourceConfig
HAL_Init
DWT_Delay_Init
HAL_GPIO_TogglePin
HAL_Delay
